; Function Attrs: mustprogress uwtable
define noalias noundef nonnull ptr @lean_uv_tcp_keepalive(ptr noundef readonly captures(none) %0, i32 noundef %1, i32 noundef %2, ptr noundef readnone captures(none) %3) local_unnamed_addr #0 {
  %5 = getelementptr i8, ptr %0, i64 16
  %.val = load ptr, ptr %5, align 8, !tbaa !44
  tail call void @_ZN4lean15event_loop_lockEPNS_12event_loop_tE(ptr noundef nonnull @_ZN4lean9global_evE)
  %6 = load ptr, ptr %.val, align 8, !tbaa !22
  %7 = tail call i32 @uv_tcp_keepalive(ptr noundef %6, i32 noundef %1, i32 noundef %2)
  tail call void @_ZN4lean17event_loop_unlockEPNS_12event_loop_tE(ptr noundef nonnull @_ZN4lean9global_evE)
  %8 = icmp slt i32 %7, 0
  br i1 %8, label %9, label %14

9:                                                ; preds = %4
  %10 = tail call ptr @lean_decode_uv_error(i32 noundef %7, ptr noundef null)
  tail call void @lean_inc_heartbeat()
  %11 = tail call noalias ptr @mi_malloc_small(i64 noundef 24) #15
  %12 = icmp eq ptr %11, null
  br i1 %12, label %13, label %_ZL23lean_io_result_mk_errorP11lean_object.exit

13:                                               ; preds = %9
  tail call void @lean_internal_panic_out_of_memory() #16
  unreachable

14:                                               ; preds = %4
  tail call void @lean_inc_heartbeat()
  %15 = tail call noalias ptr @mi_malloc_small(i64 noundef 24) #15
  %16 = icmp eq ptr %15, null
  br i1 %16, label %17, label %_ZL23lean_io_result_mk_errorP11lean_object.exit

17:                                               ; preds = %14
  tail call void @lean_internal_panic_out_of_memory() #16
  unreachable

_ZL23lean_io_result_mk_errorP11lean_object.exit:  ; preds = %14, %9
  %.sink13 = phi ptr [ %11, %9 ], [ %15, %14 ]
  %.sink10 = phi i32 [ 16908312, %9 ], [ 131096, %14 ]
  %.sink = phi ptr [ %10, %9 ], [ inttoptr (i64 1 to ptr), %14 ]
  %18 = getelementptr inbounds nuw i8, ptr %.sink13, i64 4
  store i32 1, ptr %.sink13, align 4, !tbaa !40
  store i32 %.sink10, ptr %18, align 4
  %19 = getelementptr inbounds nuw i8, ptr %.sink13, i64 8
  store ptr %.sink, ptr %19, align 8, !tbaa !34
  %20 = getelementptr inbounds nuw i8, ptr %.sink13, i64 16
  store ptr inttoptr (i64 1 to ptr), ptr %20, align 8, !tbaa !34
  ret ptr %.sink13
}